; Function Attrs: nounwind uwtable
define internal void @out_construct(ptr noundef initializes((184, 196), (200, 264)) %0) #0 {
  %2 = load i32, ptr @pmix_class_init_epoch, align 4, !tbaa !3
  %3 = load i32, ptr getelementptr inbounds nuw (i8, ptr @pmix_list_t_class, i64 32), align 8, !tbaa !7
  %.not = icmp eq i32 %2, %3
  br i1 %.not, label %5, label %4

4:                                                ; preds = %1
  tail call void @pmix_class_initialize(ptr noundef nonnull @pmix_list_t_class) #16
  br label %5

5:                                                ; preds = %4, %1
  %6 = getelementptr inbounds nuw i8, ptr %0, i64 144
  %7 = getelementptr inbounds nuw i8, ptr %0, i64 184
  store ptr @pmix_list_t_class, ptr %7, align 8, !tbaa !13
  %8 = getelementptr inbounds nuw i8, ptr %0, i64 192
  store i32 1, ptr %8, align 8, !tbaa !16
  %9 = getelementptr inbounds nuw i8, ptr %0, i64 200
  tail call void @llvm.memset.p0.i64(ptr noundef nonnull align 8 dereferenceable(64) %9, i8 0, i64 64, i1 false)
  %10 = load ptr, ptr getelementptr inbounds nuw (i8, ptr @pmix_list_t_class, i64 40), align 8, !tbaa !17
  %11 = load ptr, ptr %10, align 8, !tbaa !18
  %.not6.i = icmp eq ptr %11, null
  br i1 %.not6.i, label %pmix_obj_run_constructors.exit, label %.lr.ph.i

.lr.ph.i:                                         ; preds = %5, %.lr.ph.i
  %12 = phi ptr [ %14, %.lr.ph.i ], [ %11, %5 ]
  %.07.i = phi ptr [ %13, %.lr.ph.i ], [ %10, %5 ]
  tail call void %12(ptr noundef nonnull %6) #16
  %13 = getelementptr inbounds nuw i8, ptr %.07.i, i64 8
  %14 = load ptr, ptr %13, align 8, !tbaa !18
  %.not.i = icmp eq ptr %14, null
  br i1 %.not.i, label %pmix_obj_run_constructors.exit, label %.lr.ph.i, !llvm.loop !19

pmix_obj_run_constructors.exit:                   ; preds = %.lr.ph.i, %5
  %15 = getelementptr inbounds nuw i8, ptr %0, i64 416
  store i32 0, ptr %15, align 8, !tbaa !121
  %16 = getelementptr inbounds nuw i8, ptr %0, i64 424
  tail call void @llvm.memset.p0.i64(ptr noundef nonnull align 8 dereferenceable(16) %16, i8 0, i64 16, i1 false)
  ret void
}